; Function Attrs: mustprogress nofree norecurse nounwind memory(readwrite, inaccessiblemem: none) uwtable
define void @_ZN7rocksdb19ThreadStatusUpdater20ClearThreadOperationEv(ptr noundef nonnull readnone align 8 captures(none) dereferenceable(216) %0) local_unnamed_addr #7 align 2 {
  %2 = tail call align 8 ptr @llvm.threadlocal.address.p0(ptr align 8 @_ZN7rocksdb19ThreadStatusUpdater19thread_status_data_E)
  %3 = load ptr, ptr %2, align 8, !tbaa !14
  %4 = icmp eq ptr %3, null
  br i1 %4, label %_ZN7rocksdb19ThreadStatusUpdater30ClearThreadOperationPropertiesEv.exit, label %5

5:                                                ; preds = %1
  %6 = load atomic i8, ptr %3 monotonic, align 1
  %7 = trunc i8 %6 to i1
  br i1 %7, label %8, label %_ZN7rocksdb19ThreadStatusUpdater30ClearThreadOperationPropertiesEv.exit

8:                                                ; preds = %5
  %9 = getelementptr inbounds nuw i8, ptr %3, i64 48
  store atomic i32 0, ptr %9 monotonic, align 4
  %10 = getelementptr inbounds nuw i8, ptr %3, i64 32
  store atomic i32 0, ptr %10 monotonic, align 4
  %11 = load atomic i8, ptr %3 monotonic, align 1
  %12 = trunc i8 %11 to i1
  br i1 %12, label %_ZN7rocksdb19ThreadStatusUpdater20GetLocalThreadStatusEv.exit.preheader.i, label %_ZN7rocksdb19ThreadStatusUpdater30ClearThreadOperationPropertiesEv.exit

_ZN7rocksdb19ThreadStatusUpdater20GetLocalThreadStatusEv.exit.preheader.i: ; preds = %8
  %13 = getelementptr inbounds nuw i8, ptr %3, i64 56
  br label %_ZN7rocksdb19ThreadStatusUpdater20GetLocalThreadStatusEv.exit.i

_ZN7rocksdb19ThreadStatusUpdater20GetLocalThreadStatusEv.exit.i: ; preds = %_ZN7rocksdb19ThreadStatusUpdater20GetLocalThreadStatusEv.exit.i, %_ZN7rocksdb19ThreadStatusUpdater20GetLocalThreadStatusEv.exit.preheader.i
  %indvars.iv.i = phi i64 [ 0, %_ZN7rocksdb19ThreadStatusUpdater20GetLocalThreadStatusEv.exit.preheader.i ], [ %indvars.iv.next.i, %_ZN7rocksdb19ThreadStatusUpdater20GetLocalThreadStatusEv.exit.i ]
  %14 = getelementptr inbounds nuw [6 x %"struct.std::atomic.0"], ptr %13, i64 0, i64 %indvars.iv.i
  store atomic i64 0, ptr %14 monotonic, align 8
  %indvars.iv.next.i = add nuw nsw i64 %indvars.iv.i, 1
  %exitcond.not.i = icmp eq i64 %indvars.iv.next.i, 6
  br i1 %exitcond.not.i, label %_ZN7rocksdb19ThreadStatusUpdater30ClearThreadOperationPropertiesEv.exit, label %_ZN7rocksdb19ThreadStatusUpdater20GetLocalThreadStatusEv.exit.i, !llvm.loop !19

_ZN7rocksdb19ThreadStatusUpdater30ClearThreadOperationPropertiesEv.exit: ; preds = %_ZN7rocksdb19ThreadStatusUpdater20GetLocalThreadStatusEv.exit.i, %5, %1, %8
  ret void
}